Certificate:
    Data:
        Version: 3 (0x2)
        Serial Number: 1 (0x1)
    Signature Algorithm: sha256WithRSAEncryption
        Issuer: C=DE, ST=Lower Saxony, L=Hanover, O=OpenBSD, OU=iked, CN=VPN CA/emailAddress=reyk@openbsd.org
        Validity
            Not Before: Jul 11 09:37:28 2026 GMT
            Not After : Jul 11 09:37:28 2027 GMT
        Subject: C=DE, ST=Lower Saxony, L=Hanover, O=OpenBSD, OU=iked, CN=edgesase.iiji.jp/emailAddress=reyk@openbsd.org
        Subject Public Key Info:
            Public Key Algorithm: rsaEncryption
                RSA Public-Key: (2048 bit)
                Modulus:
                    00:c8:60:44:6c:9c:94:7d:d5:c4:e1:43:a6:2d:10:
                    46:aa:be:1f:3f:ba:de:69:13:0f:e0:81:b7:90:96:
                    e3:01:56:64:0c:a7:f4:a7:18:0c:f8:33:41:e7:ba:
                    d3:c6:6c:f7:8a:1d:79:de:a0:75:d8:95:f3:29:93:
                    c9:63:a1:0a:02:d6:94:bf:23:3f:05:35:7d:be:4e:
                    00:57:f3:61:5c:1b:33:b0:8e:a5:51:9d:5f:9c:bf:
                    4f:a4:db:46:e1:e8:e9:87:12:a8:d7:f7:9c:97:0b:
                    cd:ef:08:b8:a3:1e:17:90:6a:d5:4c:9a:eb:76:72:
                    06:6d:c8:13:fb:78:e4:02:54:70:72:c3:52:47:8a:
                    f5:84:e7:a3:57:4d:85:eb:eb:95:01:be:64:9f:2e:
                    ee:91:83:72:a6:fb:70:d7:38:c4:1f:f3:1b:04:08:
                    d4:f2:46:0e:37:c3:15:ff:3d:ec:b0:e7:62:21:87:
                    a3:58:d0:00:75:84:c3:a5:0c:e3:2c:e0:f4:24:09:
                    c7:68:ac:10:be:cb:20:7e:80:51:35:67:38:d6:75:
                    f4:df:48:47:4b:29:f0:4f:86:6b:e2:b1:0d:b4:69:
                    e6:33:f0:37:36:94:56:30:cb:b6:56:11:9b:f7:3d:
                    eb:73:22:9d:b8:0c:df:3a:4b:8c:dc:83:34:53:53:
                    be:9f
                Exponent: 65537 (0x10001)
        X509v3 extensions:
            X509v3 Key Usage: 
                Digital Signature, Certificate Sign, CRL Sign
            Netscape Cert Type: 
                SSL Client, SSL Server
            X509v3 Subject Alternative Name: 
                DNS:edgesase.iiji.jp
            X509v3 Extended Key Usage: 
                TLS Web Server Authentication, TLS Web Client Authentication
    Signature Algorithm: sha256WithRSAEncryption
         4e:da:92:4f:e2:f1:1a:6b:31:4b:21:6a:b1:e7:cb:6c:96:22:
         87:9c:c1:f3:92:f6:e0:2c:f4:65:8a:d2:1f:72:8c:0b:94:3c:
         89:53:51:f8:de:d4:ec:16:bc:13:ef:c3:b1:32:83:fa:f7:63:
         d0:8d:a6:50:2e:a6:b4:92:be:45:a6:56:02:31:32:48:6f:35:
         36:6b:27:a2:7b:fd:9d:2d:9b:d9:4a:df:0d:6d:3c:ca:45:9e:
         80:20:e9:8c:5f:68:c7:71:20:e9:51:9f:e2:c9:4a:55:51:4e:
         04:1a:c9:09:66:c2:69:2a:30:6e:92:30:3d:ec:da:d2:d4:cd:
         91:b1:73:c8:71:ae:84:3d:8e:13:96:6a:06:2c:37:f3:3f:97:
         0b:0c:87:22:7f:1e:92:a4:44:7c:a6:85:f2:f5:8e:1f:f1:5a:
         61:d1:cf:5b:0b:b6:c5:9e:0b:41:21:5d:e7:98:e7:0f:a6:e9:
         84:75:bb:86:44:8c:35:53:39:c3:67:96:c6:c4:61:1f:6f:d5:
         70:23:a7:b7:7b:f3:3f:ea:2a:8d:c9:95:a7:25:7c:bc:c3:27:
         1e:6e:30:20:7d:54:cc:15:b4:76:e6:9e:8a:81:f1:ee:7f:39:
         5c:a3:90:6e:55:3b:ad:f2:63:ad:d4:16:96:61:f3:17:5e:30:
         c3:16:ee:1b
-----BEGIN CERTIFICATE-----
MIID9zCCAt+gAwIBAgIBATANBgkqhkiG9w0BAQsFADCBiTELMAkGA1UEBhMCREUx
FTATBgNVBAgMDExvd2VyIFNheG9ueTEQMA4GA1UEBwwHSGFub3ZlcjEQMA4GA1UE
CgwHT3BlbkJTRDENMAsGA1UECwwEaWtlZDEPMA0GA1UEAwwGVlBOIENBMR8wHQYJ
KoZIhvcNAQkBFhByZXlrQG9wZW5ic2Qub3JnMB4XDTI2MDcxMTA5MzcyOFoXDTI3
MDcxMTA5MzcyOFowgZMxCzAJBgNVBAYTAkRFMRUwEwYDVQQIDAxMb3dlciBTYXhv
bnkxEDAOBgNVBAcMB0hhbm92ZXIxEDAOBgNVBAoMB09wZW5CU0QxDTALBgNVBAsM
BGlrZWQxGTAXBgNVBAMMEGVkZ2VzYXNlLmlpamkuanAxHzAdBgkqhkiG9w0BCQEW
EHJleWtAb3BlbmJzZC5vcmcwggEiMA0GCSqGSIb3DQEBAQUAA4IBDwAwggEKAoIB
AQDIYERsnJR91cThQ6YtEEaqvh8/ut5pEw/ggbeQluMBVmQMp/SnGAz4M0HnutPG
bPeKHXneoHXYlfMpk8ljoQoC1pS/Iz8FNX2+TgBX82FcGzOwjqVRnV+cv0+k20bh
6OmHEqjX95yXC83vCLijHheQatVMmut2cgZtyBP7eOQCVHByw1JHivWE56NXTYXr
65UBvmSfLu6Rg3Km+3DXOMQf8xsECNTyRg43wxX/Peyw52Ihh6NY0AB1hMOlDOMs
4PQkCcdorBC+yyB+gFE1ZzjWdfTfSEdLKfBPhmvisQ20aeYz8Dc2lFYwy7ZWEZv3
PetzIp24DN86S4zcgzRTU76fAgMBAAGjXjBcMAsGA1UdDwQEAwIBhjARBglghkgB
hvhCAQEEBAMCBsAwGwYDVR0RBBQwEoIQZWRnZXNhc2UuaWlqaS5qcDAdBgNVHSUE
FjAUBggrBgEFBQcDAQYIKwYBBQUHAwIwDQYJKoZIhvcNAQELBQADggEBAE7akk/i
8RprMUsharHny2yWIoecwfOS9uAs9GWK0h9yjAuUPIlTUfje1OwWvBPvw7Eyg/r3
Y9CNplAuprSSvkWmVgIxMkhvNTZrJ6J7/Z0tm9lK3w1tPMpFnoAg6YxfaMdxIOlR
n+LJSlVRTgQayQlmwmkqMG6SMD3s2tLUzZGxc8hxroQ9jhOWagYsN/M/lwsMhyJ/
HpKkRHymhfL1jh/xWmHRz1sLtsWeC0EhXeeY5w+m6YR1u4ZEjDVTOcNnlsbEYR9v
1XAjp7d78z/qKo3JlaclfLzDJx5uMCB9VMwVtHbmnoqB8e5/OVyjkG5VO63yY63U
FpZh8xdeMMMW7hs=
-----END CERTIFICATE-----
